target datalayout = "e-m:e-p270:32:32-p271:32:32-p272:64:64-i64:64-i128:128-f80:128-n8:16:32:64-S128"
target triple = "x86_64-pc-linux-gnu"

%struct._GLFWlibrary = type { i32, %struct.GLFWallocator, %struct._GLFWplatform, %struct.anon, ptr, ptr, ptr, ptr, i32, i32, [16 x %struct._GLFWjoystick], ptr, i32, %struct._GLFWtls, %struct._GLFWtls, %struct._GLFWmutex, %struct.anon.8, %struct.anon.9, %struct.anon.10, %struct.anon.11, %struct.anon.12, %struct._GLFWlibraryWayland, %struct._GLFWlibraryX11, %struct._GLFWlibraryNull, %struct._GLFWlibraryGLX, %struct._GLFWlibraryLinux }
%struct.GLFWallocator = type { ptr, ptr, ptr, ptr }
%struct._GLFWplatform = type { i32, ptr, ptr, ptr, ptr, ptr, ptr, ptr, ptr, ptr, ptr, ptr, ptr, ptr, ptr, ptr, ptr, ptr, ptr, ptr, ptr, ptr, ptr, ptr, ptr, ptr, ptr, ptr, ptr, ptr, ptr, ptr, ptr, ptr, ptr, ptr, ptr, ptr, ptr, ptr, ptr, ptr, ptr, ptr, ptr, ptr, ptr, ptr, ptr, ptr, ptr, ptr, ptr, ptr, ptr, ptr, ptr, ptr, ptr, ptr, ptr, ptr, ptr, ptr, ptr, ptr, ptr, ptr, ptr, ptr, ptr, ptr }
%struct.anon = type { %struct._GLFWinitconfig, %struct._GLFWfbconfig, %struct._GLFWwndconfig, %struct._GLFWctxconfig, i32 }
%struct._GLFWinitconfig = type { i32, i32, i32, ptr, %struct.anon.0, %struct.anon.1, %struct.anon.2 }
%struct.anon.0 = type { i32, i32 }
%struct.anon.1 = type { i32 }
%struct.anon.2 = type { i32 }
%struct._GLFWfbconfig = type { i32, i32, i32, i32, i32, i32, i32, i32, i32, i32, i32, i32, i32, i32, i32, i32, i64 }
%struct._GLFWwndconfig = type { i32, i32, i32, i32, ptr, i32, i32, i32, i32, i32, i32, i32, i32, i32, i32, i32, i32, %struct.anon.3, %struct.anon.4, %struct.anon.5, %struct.anon.6 }
%struct.anon.3 = type { [256 x i8] }
%struct.anon.4 = type { [256 x i8], [256 x i8] }
%struct.anon.5 = type { i32, i32 }
%struct.anon.6 = type { [256 x i8] }
%struct._GLFWctxconfig = type { i32, i32, i32, i32, i32, i32, i32, i32, i32, i32, ptr, %struct.anon.7 }
%struct.anon.7 = type { i32 }
%struct._GLFWjoystick = type { i32, i32, ptr, i32, ptr, i32, ptr, i32, [128 x i8], ptr, [33 x i8], ptr, %struct._GLFWjoystickLinux }
%struct._GLFWjoystickLinux = type { i32, [4096 x i8], [512 x i32], [64 x i32], [64 x %struct.input_absinfo], [4 x [2 x i32]] }
%struct.input_absinfo = type { i32, i32, i32, i32, i32, i32 }
%struct._GLFWtls = type { %struct._GLFWtlsPOSIX }
%struct._GLFWtlsPOSIX = type { i32, i32 }
%struct._GLFWmutex = type { %struct._GLFWmutexPOSIX }
%struct._GLFWmutexPOSIX = type { i32, %union.pthread_mutex_t }
%union.pthread_mutex_t = type { %struct.__pthread_mutex_s }
%struct.__pthread_mutex_s = type { i32, i32, i32, i32, i32, i16, i16, %struct.__pthread_internal_list }
%struct.__pthread_internal_list = type { ptr, ptr }
%struct.anon.8 = type { i64, %struct._GLFWtimerPOSIX }
%struct._GLFWtimerPOSIX = type { i32, i64 }
%struct.anon.9 = type { i32, ptr, i32, i32, i32, i32, i32, i32, i32, i32, i32, i32, i32, i32, i32, i32, i32, i32, i32, i32, ptr, ptr, ptr, ptr, ptr, ptr, ptr, ptr, ptr, ptr, ptr, ptr, ptr, ptr, ptr, ptr, ptr, ptr, ptr }
%struct.anon.10 = type { ptr, ptr, ptr, ptr, ptr, ptr, ptr, ptr }
%struct.anon.11 = type { i32, ptr, [2 x ptr], ptr, i32, i32, i32, i32, i32, i32, i32 }
%struct.anon.12 = type { ptr, ptr }
%struct._GLFWlibraryWayland = type { ptr, ptr, ptr, ptr, ptr, ptr, ptr, ptr, ptr, ptr, ptr, ptr, ptr, ptr, ptr, ptr, ptr, ptr, ptr, i32, ptr, ptr, ptr, ptr, i32, ptr, ptr, ptr, ptr, ptr, i32, i32, i32, i32, i32, i32, i32, ptr, [256 x i16], [349 x i16], [349 x [5 x i8]], %struct.anon.13, ptr, ptr, %struct.anon.14, %struct.anon.15, %struct.anon.16, %struct.anon.17 }
%struct.anon.13 = type { ptr, ptr, ptr, ptr, ptr, i32, i32, i32, i32, i32, i32, i32, ptr, ptr, ptr, ptr, ptr, ptr, ptr, ptr, ptr, ptr, ptr, ptr, ptr, ptr, ptr, ptr, ptr, ptr, ptr, ptr }
%struct.anon.14 = type { ptr, ptr, ptr, ptr, ptr, ptr, ptr, ptr, ptr, ptr, ptr, ptr, ptr, ptr, ptr, ptr, ptr, ptr, ptr, ptr }
%struct.anon.15 = type { ptr, ptr, ptr, ptr, ptr }
%struct.anon.16 = type { ptr, ptr, ptr, ptr }
%struct.anon.17 = type { ptr, ptr, ptr, i32, ptr, ptr, ptr, ptr, ptr, ptr, ptr, ptr, ptr, ptr, ptr, ptr, ptr, ptr, ptr, ptr, ptr, ptr, ptr, ptr, ptr, ptr, ptr, ptr, ptr }
%struct._GLFWlibraryX11 = type { ptr, i32, i64, float, float, i64, i64, i32, ptr, ptr, i32, ptr, ptr, [349 x [5 x i8]], [256 x i16], [349 x i16], double, double, ptr, [2 x i32], i64, i64, i64, i64, i64, i64, i64, i64, i64, i64, i64, i64, i64, i64, i64, i64, i64, i64, i64, i64, i64, i64, i64, i64, i64, i64, i64, i64, i64, i64, i64, i64, i64, i64, i64, i64, i64, i64, i64, i64, i64, i64, i64, i64, i64, i64, i64, i64, i64, i64, %struct.anon.18, %struct.anon.19, %struct.anon.20, %struct.anon.21, %struct.anon.22, %struct.anon.23, %struct.anon.24, %struct.anon.25, %struct.anon.26, %struct.anon.27, %struct.anon.28, %struct.anon.29, %struct.anon.30 }
%struct.anon.18 = type { ptr, i32, ptr, ptr, ptr, ptr, ptr, ptr, ptr, ptr, ptr, ptr, ptr, ptr, ptr, ptr, ptr, ptr, ptr, ptr, ptr, ptr, ptr, ptr, ptr, ptr, ptr, ptr, ptr, ptr, ptr, ptr, ptr, ptr, ptr, ptr, ptr, ptr, ptr, ptr, ptr, ptr, ptr, ptr, ptr, ptr, ptr, ptr, ptr, ptr, ptr, ptr, ptr, ptr, ptr, ptr, ptr, ptr, ptr, ptr, ptr, ptr, ptr, ptr, ptr, ptr, ptr, ptr, ptr, ptr, ptr, ptr, ptr, ptr, ptr, ptr, ptr, ptr, ptr, ptr, ptr, ptr, ptr, ptr, ptr, ptr, ptr, ptr }
%struct.anon.19 = type { ptr, ptr, ptr, ptr }
%struct.anon.20 = type { i32, ptr, i32, i32, i32, i32, i32, i32, ptr, ptr, ptr, ptr, ptr, ptr, ptr, ptr, ptr, ptr, ptr, ptr, ptr, ptr, ptr, ptr, ptr }
%struct.anon.21 = type { i32, i32, i32, i32, i32, i32, i32, i32, ptr, ptr, ptr, ptr, ptr, ptr, ptr, ptr, ptr }
%struct.anon.22 = type { i32, i32, i32, i32, i32 }
%struct.anon.23 = type { i32, i64, i64 }
%struct.anon.24 = type { ptr, ptr, ptr, ptr, ptr, ptr, ptr }
%struct.anon.25 = type { i32, ptr, i32, i32, ptr, ptr, ptr }
%struct.anon.26 = type { ptr, ptr }
%struct.anon.27 = type { i32, ptr, i32, i32, ptr, ptr, ptr, ptr }
%struct.anon.28 = type { i32, ptr, i32, i32, i32, i32, i32, ptr, ptr }
%struct.anon.29 = type { i32, ptr, i32, i32, i32, i32, ptr, ptr, ptr }
%struct.anon.30 = type { i32, ptr, i32, i32, i32, i32, ptr, ptr, ptr, ptr }
%struct._GLFWlibraryNull = type { i32, i32, ptr, ptr, [121 x i16], [349 x i8] }
%struct._GLFWlibraryGLX = type { i32, i32, i32, i32, ptr, ptr, ptr, ptr, ptr, ptr, ptr, ptr, ptr, ptr, ptr, ptr, ptr, ptr, ptr, ptr, ptr, ptr, ptr, ptr, i32, i32, i32, i32, i32, i32, i32, i32, i32, i32, i32, i32 }
%struct._GLFWlibraryLinux = type { i32, i32, %struct.re_pattern_buffer, i32, i32 }
%struct.re_pattern_buffer = type { ptr, i64, i64, i64, ptr, ptr, i64, i8 }
%struct._GLFWmonitor = type { [128 x i8], ptr, i32, i32, ptr, ptr, i32, %struct.GLFWvidmode, %struct.GLFWgammaramp, %struct.GLFWgammaramp, %struct._GLFWmonitorWayland, %struct._GLFWmonitorX11, %struct._GLFWmonitorNull }
%struct.GLFWvidmode = type { i32, i32, i32, i32, i32, i32 }
%struct.GLFWgammaramp = type { ptr, ptr, ptr, i32 }
%struct._GLFWmonitorWayland = type { ptr, i32, i32, i32, i32, i32 }
%struct._GLFWmonitorX11 = type { i64, i64, i64, i32 }
%struct._GLFWmonitorNull = type { %struct.GLFWgammaramp }
%struct._XRRCrtcGamma = type { i32, ptr, ptr, ptr }

@_glfw = external global %struct._GLFWlibrary, align 8
@.str.2 = private unnamed_addr constant [47 x i8] c"X11: Gamma ramp access not supported by server\00", align 1

; Function Attrs: nounwind uwtable
define hidden i32 @_glfwGetGammaRampX11(ptr noundef %0, ptr noundef %1) #0 {
  %3 = alloca i32, align 4
  %4 = alloca ptr, align 8
  %5 = alloca ptr, align 8
  %6 = alloca i64, align 8
  %7 = alloca ptr, align 8
  %8 = alloca i32, align 4
  store ptr %0, ptr %4, align 8, !tbaa !121
  store ptr %1, ptr %5, align 8, !tbaa !198
  %9 = load i32, ptr getelementptr inbounds nuw (%struct._GLFWlibraryX11, ptr getelementptr inbounds nuw (%struct._GLFWlibrary, ptr @_glfw, i32 0, i32 22), i32 0, i32 72), align 8, !tbaa !3
  %10 = icmp ne i32 %9, 0
  br i1 %10, label %11, label %59

11:                                               ; preds = %2
  %12 = load i32, ptr getelementptr inbounds nuw (%struct.anon.20, ptr getelementptr inbounds nuw (%struct._GLFWlibraryX11, ptr getelementptr inbounds nuw (%struct._GLFWlibrary, ptr @_glfw, i32 0, i32 22), i32 0, i32 72), i32 0, i32 6), align 8, !tbaa !200
  %13 = icmp ne i32 %12, 0
  br i1 %13, label %59, label %14

14:                                               ; preds = %11
  call void @llvm.lifetime.start.p0(i64 8, ptr %6) #5
  %15 = load ptr, ptr getelementptr inbounds nuw (%struct.anon.20, ptr getelementptr inbounds nuw (%struct._GLFWlibraryX11, ptr getelementptr inbounds nuw (%struct._GLFWlibrary, ptr @_glfw, i32 0, i32 22), i32 0, i32 72), i32 0, i32 14), align 8, !tbaa !201
  %16 = load ptr, ptr getelementptr inbounds nuw (%struct._GLFWlibrary, ptr @_glfw, i32 0, i32 22), align 8, !tbaa !98
  %17 = load ptr, ptr %4, align 8, !tbaa !121
  %18 = getelementptr inbounds nuw %struct._GLFWmonitor, ptr %17, i32 0, i32 11
  %19 = getelementptr inbounds nuw %struct._GLFWmonitorX11, ptr %18, i32 0, i32 1
  %20 = load i64, ptr %19, align 8, !tbaa !143
  %21 = call i32 %15(ptr noundef %16, i64 noundef %20)
  %22 = sext i32 %21 to i64
  store i64 %22, ptr %6, align 8, !tbaa !103
  call void @llvm.lifetime.start.p0(i64 8, ptr %7) #5
  %23 = load ptr, ptr getelementptr inbounds nuw (%struct.anon.20, ptr getelementptr inbounds nuw (%struct._GLFWlibraryX11, ptr getelementptr inbounds nuw (%struct._GLFWlibrary, ptr @_glfw, i32 0, i32 22), i32 0, i32 72), i32 0, i32 13), align 8, !tbaa !202
  %24 = load ptr, ptr getelementptr inbounds nuw (%struct._GLFWlibrary, ptr @_glfw, i32 0, i32 22), align 8, !tbaa !98
  %25 = load ptr, ptr %4, align 8, !tbaa !121
  %26 = getelementptr inbounds nuw %struct._GLFWmonitor, ptr %25, i32 0, i32 11
  %27 = getelementptr inbounds nuw %struct._GLFWmonitorX11, ptr %26, i32 0, i32 1
  %28 = load i64, ptr %27, align 8, !tbaa !143
  %29 = call ptr %23(ptr noundef %24, i64 noundef %28)
  store ptr %29, ptr %7, align 8, !tbaa !203
  %30 = load ptr, ptr %5, align 8, !tbaa !198
  %31 = load i64, ptr %6, align 8, !tbaa !103
  %32 = trunc i64 %31 to i32
  call void @_glfwAllocGammaArrays(ptr noundef %30, i32 noundef %32)
  %33 = load ptr, ptr %5, align 8, !tbaa !198
  %34 = getelementptr inbounds nuw %struct.GLFWgammaramp, ptr %33, i32 0, i32 0
  %35 = load ptr, ptr %34, align 8, !tbaa !205
  %36 = load ptr, ptr %7, align 8, !tbaa !203
  %37 = getelementptr inbounds nuw %struct._XRRCrtcGamma, ptr %36, i32 0, i32 1
  %38 = load ptr, ptr %37, align 8, !tbaa !206
  %39 = load i64, ptr %6, align 8, !tbaa !103
  %40 = mul i64 %39, 2
  call void @llvm.memcpy.p0.p0.i64(ptr align 2 %35, ptr align 2 %38, i64 %40, i1 false)
  %41 = load ptr, ptr %5, align 8, !tbaa !198
  %42 = getelementptr inbounds nuw %struct.GLFWgammaramp, ptr %41, i32 0, i32 1
  %43 = load ptr, ptr %42, align 8, !tbaa !208
  %44 = load ptr, ptr %7, align 8, !tbaa !203
  %45 = getelementptr inbounds nuw %struct._XRRCrtcGamma, ptr %44, i32 0, i32 2
  %46 = load ptr, ptr %45, align 8, !tbaa !209
  %47 = load i64, ptr %6, align 8, !tbaa !103
  %48 = mul i64 %47, 2
  call void @llvm.memcpy.p0.p0.i64(ptr align 2 %43, ptr align 2 %46, i64 %48, i1 false)
  %49 = load ptr, ptr %5, align 8, !tbaa !198
  %50 = getelementptr inbounds nuw %struct.GLFWgammaramp, ptr %49, i32 0, i32 2
  %51 = load ptr, ptr %50, align 8, !tbaa !210
  %52 = load ptr, ptr %7, align 8, !tbaa !203
  %53 = getelementptr inbounds nuw %struct._XRRCrtcGamma, ptr %52, i32 0, i32 3
  %54 = load ptr, ptr %53, align 8, !tbaa !211
  %55 = load i64, ptr %6, align 8, !tbaa !103
  %56 = mul i64 %55, 2
  call void @llvm.memcpy.p0.p0.i64(ptr align 2 %51, ptr align 2 %54, i64 %56, i1 false)
  %57 = load ptr, ptr getelementptr inbounds nuw (%struct.anon.20, ptr getelementptr inbounds nuw (%struct._GLFWlibraryX11, ptr getelementptr inbounds nuw (%struct._GLFWlibrary, ptr @_glfw, i32 0, i32 22), i32 0, i32 72), i32 0, i32 10), align 8, !tbaa !212
  %58 = load ptr, ptr %7, align 8, !tbaa !203
  call void %57(ptr noundef %58)
  store i32 1, ptr %3, align 4
  call void @llvm.lifetime.end.p0(i64 8, ptr %7) #5
  call void @llvm.lifetime.end.p0(i64 8, ptr %6) #5
  br label %86

59:                                               ; preds = %11, %2
  %60 = load i32, ptr getelementptr inbounds nuw (%struct._GLFWlibraryX11, ptr getelementptr inbounds nuw (%struct._GLFWlibrary, ptr @_glfw, i32 0, i32 22), i32 0, i32 79), align 8, !tbaa !213
  %61 = icmp ne i32 %60, 0
  br i1 %61, label %62, label %85

62:                                               ; preds = %59
  call void @llvm.lifetime.start.p0(i64 4, ptr %8) #5
  %63 = load ptr, ptr getelementptr inbounds nuw (%struct.anon.27, ptr getelementptr inbounds nuw (%struct._GLFWlibraryX11, ptr getelementptr inbounds nuw (%struct._GLFWlibrary, ptr @_glfw, i32 0, i32 22), i32 0, i32 79), i32 0, i32 7), align 8, !tbaa !214
  %64 = load ptr, ptr getelementptr inbounds nuw (%struct._GLFWlibrary, ptr @_glfw, i32 0, i32 22), align 8, !tbaa !98
  %65 = load i32, ptr getelementptr inbounds nuw (%struct._GLFWlibraryX11, ptr getelementptr inbounds nuw (%struct._GLFWlibrary, ptr @_glfw, i32 0, i32 22), i32 0, i32 1), align 8, !tbaa !160
  %66 = call i32 %63(ptr noundef %64, i32 noundef %65, ptr noundef %8)
  %67 = load ptr, ptr %5, align 8, !tbaa !198
  %68 = load i32, ptr %8, align 4, !tbaa !94
  call void @_glfwAllocGammaArrays(ptr noundef %67, i32 noundef %68)
  %69 = load ptr, ptr getelementptr inbounds nuw (%struct.anon.27, ptr getelementptr inbounds nuw (%struct._GLFWlibraryX11, ptr getelementptr inbounds nuw (%struct._GLFWlibrary, ptr @_glfw, i32 0, i32 22), i32 0, i32 79), i32 0, i32 5), align 8, !tbaa !215
  %70 = load ptr, ptr getelementptr inbounds nuw (%struct._GLFWlibrary, ptr @_glfw, i32 0, i32 22), align 8, !tbaa !98
  %71 = load i32, ptr getelementptr inbounds nuw (%struct._GLFWlibraryX11, ptr getelementptr inbounds nuw (%struct._GLFWlibrary, ptr @_glfw, i32 0, i32 22), i32 0, i32 1), align 8, !tbaa !160
  %72 = load ptr, ptr %5, align 8, !tbaa !198
  %73 = getelementptr inbounds nuw %struct.GLFWgammaramp, ptr %72, i32 0, i32 3
  %74 = load i32, ptr %73, align 8, !tbaa !216
  %75 = load ptr, ptr %5, align 8, !tbaa !198
  %76 = getelementptr inbounds nuw %struct.GLFWgammaramp, ptr %75, i32 0, i32 0
  %77 = load ptr, ptr %76, align 8, !tbaa !205
  %78 = load ptr, ptr %5, align 8, !tbaa !198
  %79 = getelementptr inbounds nuw %struct.GLFWgammaramp, ptr %78, i32 0, i32 1
  %80 = load ptr, ptr %79, align 8, !tbaa !208
  %81 = load ptr, ptr %5, align 8, !tbaa !198
  %82 = getelementptr inbounds nuw %struct.GLFWgammaramp, ptr %81, i32 0, i32 2
  %83 = load ptr, ptr %82, align 8, !tbaa !210
  %84 = call i32 %69(ptr noundef %70, i32 noundef %71, i32 noundef %74, ptr noundef %77, ptr noundef %80, ptr noundef %83)
  store i32 1, ptr %3, align 4
  call void @llvm.lifetime.end.p0(i64 4, ptr %8) #5
  br label %86

85:                                               ; preds = %59
  call void (i32, ptr, ...) @_glfwInputError(i32 noundef 65544, ptr noundef @.str.2)
  store i32 0, ptr %3, align 4
  br label %86

86:                                               ; preds = %85, %62, %14
  %87 = load i32, ptr %3, align 4
  ret i32 %87
}