; Function Attrs: nounwind uwtable
define hidden range(i32 0, 2) i32 @_glfwGetGammaRampX11(ptr noundef readonly captures(none) %0, ptr noundef %1) local_unnamed_addr #0 {
  %3 = alloca i32, align 4
  %4 = load i32, ptr getelementptr inbounds nuw (i8, ptr @_glfw, i64 142064), align 8, !tbaa !3
  %5 = icmp eq i32 %4, 0
  %6 = load i32, ptr getelementptr inbounds nuw (i8, ptr @_glfw, i64 142096), align 8
  %7 = icmp ne i32 %6, 0
  %or.cond = select i1 %5, i1 true, i1 %7
  br i1 %or.cond, label %32, label %8

8:                                                ; preds = %2
  %9 = load ptr, ptr getelementptr inbounds nuw (i8, ptr @_glfw, i64 142152), align 8, !tbaa !191
  %10 = load ptr, ptr getelementptr inbounds nuw (i8, ptr @_glfw, i64 137840), align 8, !tbaa !95
  %11 = getelementptr inbounds nuw i8, ptr %0, i64 296
  %12 = load i64, ptr %11, align 8, !tbaa !133
  %13 = tail call i32 %9(ptr noundef %10, i64 noundef %12) #9
  %14 = sext i32 %13 to i64
  %15 = load ptr, ptr getelementptr inbounds nuw (i8, ptr @_glfw, i64 142144), align 8, !tbaa !192
  %16 = load ptr, ptr getelementptr inbounds nuw (i8, ptr @_glfw, i64 137840), align 8, !tbaa !95
  %17 = load i64, ptr %11, align 8, !tbaa !133
  %18 = tail call ptr %15(ptr noundef %16, i64 noundef %17) #9
  tail call void @_glfwAllocGammaArrays(ptr noundef %1, i32 noundef %13) #9
  %19 = load ptr, ptr %1, align 8, !tbaa !193
  %20 = getelementptr inbounds nuw i8, ptr %18, i64 8
  %21 = load ptr, ptr %20, align 8, !tbaa !194
  %22 = shl nsw i64 %14, 1
  tail call void @llvm.memcpy.p0.p0.i64(ptr align 2 %19, ptr align 2 %21, i64 %22, i1 false)
  %23 = getelementptr inbounds nuw i8, ptr %1, i64 8
  %24 = load ptr, ptr %23, align 8, !tbaa !196
  %25 = getelementptr inbounds nuw i8, ptr %18, i64 16
  %26 = load ptr, ptr %25, align 8, !tbaa !197
  tail call void @llvm.memcpy.p0.p0.i64(ptr align 2 %24, ptr align 2 %26, i64 %22, i1 false)
  %27 = getelementptr inbounds nuw i8, ptr %1, i64 16
  %28 = load ptr, ptr %27, align 8, !tbaa !198
  %29 = getelementptr inbounds nuw i8, ptr %18, i64 24
  %30 = load ptr, ptr %29, align 8, !tbaa !199
  tail call void @llvm.memcpy.p0.p0.i64(ptr align 2 %28, ptr align 2 %30, i64 %22, i1 false)
  %31 = load ptr, ptr getelementptr inbounds nuw (i8, ptr @_glfw, i64 142120), align 8, !tbaa !200
  tail call void %31(ptr noundef %18) #9
  br label %52

32:                                               ; preds = %2
  %33 = load i32, ptr getelementptr inbounds nuw (i8, ptr @_glfw, i64 142512), align 8, !tbaa !201
  %.not = icmp eq i32 %33, 0
  br i1 %.not, label %51, label %34

34:                                               ; preds = %32
  call void @llvm.lifetime.start.p0(i64 4, ptr nonnull %3) #9
  %35 = load ptr, ptr getelementptr inbounds nuw (i8, ptr @_glfw, i64 142560), align 8, !tbaa !202
  %36 = load ptr, ptr getelementptr inbounds nuw (i8, ptr @_glfw, i64 137840), align 8, !tbaa !95
  %37 = load i32, ptr getelementptr inbounds nuw (i8, ptr @_glfw, i64 137848), align 8, !tbaa !149
  %38 = call i32 %35(ptr noundef %36, i32 noundef %37, ptr noundef nonnull %3) #9
  %39 = load i32, ptr %3, align 4, !tbaa !93
  call void @_glfwAllocGammaArrays(ptr noundef %1, i32 noundef %39) #9
  %40 = load ptr, ptr getelementptr inbounds nuw (i8, ptr @_glfw, i64 142544), align 8, !tbaa !203
  %41 = load ptr, ptr getelementptr inbounds nuw (i8, ptr @_glfw, i64 137840), align 8, !tbaa !95
  %42 = load i32, ptr getelementptr inbounds nuw (i8, ptr @_glfw, i64 137848), align 8, !tbaa !149
  %43 = getelementptr inbounds nuw i8, ptr %1, i64 24
  %44 = load i32, ptr %43, align 8, !tbaa !204
  %45 = load ptr, ptr %1, align 8, !tbaa !193
  %46 = getelementptr inbounds nuw i8, ptr %1, i64 8
  %47 = load ptr, ptr %46, align 8, !tbaa !196
  %48 = getelementptr inbounds nuw i8, ptr %1, i64 16
  %49 = load ptr, ptr %48, align 8, !tbaa !198
  %50 = call i32 %40(ptr noundef %41, i32 noundef %42, i32 noundef %44, ptr noundef %45, ptr noundef %47, ptr noundef %49) #9
  call void @llvm.lifetime.end.p0(i64 4, ptr nonnull %3) #9
  br label %52

51:                                               ; preds = %32
  tail call void (i32, ptr, ...) @_glfwInputError(i32 noundef 65544, ptr noundef nonnull @.str.2) #9
  br label %52

52:                                               ; preds = %51, %34, %8
  %.0 = phi i32 [ 1, %34 ], [ 0, %51 ], [ 1, %8 ]
  ret i32 %.0
}